; Function Attrs: nounwind sspstrong uwtable
define internal noundef i64 @strscan_pre_match(i64 noundef %0) #0 {
  %2 = tail call ptr @rb_check_typeddata(i64 noundef %0, ptr noundef nonnull @strscanner_type) #12
  %3 = getelementptr inbounds nuw i8, ptr %2, i64 8
  %4 = load i64, ptr %3, align 8, !tbaa !23
  %5 = icmp eq i64 %4, 4
  br i1 %5, label %6, label %8

6:                                                ; preds = %1
  %7 = load i64, ptr @rb_eArgError, align 8, !tbaa !10
  tail call void (i64, ptr, ...) @rb_raise(i64 noundef %7, ptr noundef nonnull @.str.66) #14
  unreachable

8:                                                ; preds = %1
  %9 = load i64, ptr %2, align 8, !tbaa !18
  %10 = and i64 %9, 1
  %.not = icmp eq i64 %10, 0
  br i1 %.not, label %extract_range.exit, label %11

11:                                               ; preds = %8
  %12 = getelementptr inbounds nuw i8, ptr %2, i64 40
  %13 = load ptr, ptr %12, align 8, !tbaa !43
  %14 = load i64, ptr %13, align 8, !tbaa !10
  %15 = getelementptr inbounds nuw i8, ptr %2, i64 64
  %16 = load i8, ptr %15, align 8, !tbaa !27, !range !41, !noundef !42
  %17 = trunc nuw i8 %16 to i1
  br i1 %17, label %adjust_register_position.exit, label %18

18:                                               ; preds = %11
  %19 = getelementptr inbounds nuw i8, ptr %2, i64 16
  %20 = load i64, ptr %19, align 8, !tbaa !28
  %21 = add nsw i64 %20, %14
  br label %adjust_register_position.exit

adjust_register_position.exit:                    ; preds = %11, %18
  %.0.i = phi i64 [ %21, %18 ], [ %14, %11 ]
  %22 = inttoptr i64 %4 to ptr
  %23 = getelementptr inbounds nuw i8, ptr %22, i64 16
  %24 = load i64, ptr %23, align 8, !tbaa !32
  %25 = icmp slt i64 %24, 0
  br i1 %25, label %extract_range.exit, label %26

26:                                               ; preds = %adjust_register_position.exit
  %27 = tail call noundef i64 @llvm.smin.i64(i64 %.0.i, i64 %24)
  %28 = load i64, ptr %22, align 8, !tbaa !34, !noalias !86
  %29 = and i64 %28, 8192
  %.not.i.i.i = icmp eq i64 %29, 0
  %30 = getelementptr inbounds nuw i8, ptr %22, i64 24
  br i1 %.not.i.i.i, label %RSTRING_PTR.exit.i, label %31

31:                                               ; preds = %26
  %.sroa.2.0.copyload.i.i = load ptr, ptr %30, align 8
  br label %RSTRING_PTR.exit.i

RSTRING_PTR.exit.i:                               ; preds = %31, %26
  %.sroa.2.0.i.i = phi ptr [ %.sroa.2.0.copyload.i.i, %31 ], [ %30, %26 ]
  %32 = tail call i64 @rb_str_new(ptr noundef %.sroa.2.0.i.i, i64 noundef %27) #12
  %33 = load i64, ptr %3, align 8, !tbaa !23
  tail call void @rb_enc_copy(i64 noundef %32, i64 noundef %33) #12
  br label %extract_range.exit

extract_range.exit:                               ; preds = %RSTRING_PTR.exit.i, %adjust_register_position.exit, %8
  %.0 = phi i64 [ 4, %8 ], [ %32, %RSTRING_PTR.exit.i ], [ 4, %adjust_register_position.exit ]
  ret i64 %.0
}